target datalayout = "e-m:e-p270:32:32-p271:32:32-p272:64:64-i64:64-i128:128-f80:128-n8:16:32:64-S128"
target triple = "x86_64-pc-linux-gnu"

%struct.expert_field = type { i32, i32 }
%struct._packet_info = type { ptr, ptr, i32, i32, %struct.nstime_t, %struct.nstime_t, %struct.nstime_t, i8, ptr, ptr, ptr, ptr, %struct._address, %struct._address, %struct._address, %struct._address, %struct._address, %struct._address, i32, ptr, i8, [3 x i8], %struct.anon, i32, i32, i32, i32, ptr, i8, ptr, ptr, i16, i16, i32, i32, i16, i32, i32, ptr, ptr, ptr, i8, i8, i16, i16, i16, i32, i16, i16, ptr, ptr, ptr, ptr, ptr, i32, i32 }
%struct.nstime_t = type { i64, i32 }
%struct._address = type { i32, i32, ptr, ptr }
%struct.anon = type { i8, [3 x i8] }
%struct.e_in6_addr = type { [16 x i8] }

@hf_bgp_update_path_attribute_mp_reach_nlri_next_hop_ipv6 = internal global i32 0, align 4
@hf_bgp_update_path_attribute_mp_reach_nlri_next_hop_ipv6_link_local = internal global i32 0, align 4
@ei_bgp_next_hop_ipv6_scope = internal global %struct.expert_field zeroinitializer, align 4
@.str.1808 = private unnamed_addr constant [8 x i8] c"IPv6=%s\00", align 1
@.str.1809 = private unnamed_addr constant [49 x i8] c"Invalid IPv6 address scope; should be link-local\00", align 1
@.str.1810 = private unnamed_addr constant [15 x i8] c" Link-local=%s\00", align 1

; Function Attrs: inlinehint nounwind null_pointer_is_valid sspstrong uwtable
define internal zeroext i1 @in6_addr_is_linklocal(ptr noundef %0) #4 {
  %2 = alloca ptr, align 8
  store ptr %0, ptr %2, align 8
  %3 = load ptr, ptr %2, align 8
  %4 = getelementptr inbounds nuw %struct.e_in6_addr, ptr %3, i32 0, i32 0
  %5 = getelementptr [16 x i8], ptr %4, i64 0, i64 0
  %6 = load i8, ptr %5, align 1
  %7 = zext i8 %6 to i32
  %8 = icmp eq i32 %7, 254
  br i1 %8, label %9, label %17

9:                                                ; preds = %1
  %10 = load ptr, ptr %2, align 8
  %11 = getelementptr inbounds nuw %struct.e_in6_addr, ptr %10, i32 0, i32 0
  %12 = getelementptr [16 x i8], ptr %11, i64 0, i64 1
  %13 = load i8, ptr %12, align 1
  %14 = zext i8 %13 to i32
  %15 = and i32 %14, 192
  %16 = icmp eq i32 %15, 128
  br label %17

17:                                               ; preds = %9, %1
  %18 = phi i1 [ false, %1 ], [ %16, %9 ]
  ret i1 %18
}

; Function Attrs: null_pointer_is_valid sspstrong uwtable
define internal i32 @decode_mp_next_hop_ipv6(ptr noundef %0, ptr noundef %1, i32 noundef %2, ptr noundef %3, ptr noundef %4, i32 noundef %5) #0 {
  %7 = alloca i32, align 4
  %8 = alloca ptr, align 8
  %9 = alloca ptr, align 8
  %10 = alloca i32, align 4
  %11 = alloca ptr, align 8
  %12 = alloca ptr, align 8
  %13 = alloca i32, align 4
  %14 = alloca ptr, align 8
  %15 = alloca %struct.e_in6_addr, align 1
  %16 = alloca [46 x i8], align 16
  %17 = alloca i32, align 4
  store ptr %0, ptr %8, align 8
  store ptr %1, ptr %9, align 8
  store i32 %2, ptr %10, align 4
  store ptr %3, ptr %11, align 8
  store ptr %4, ptr %12, align 8
  store i32 %5, ptr %13, align 4
  call void @llvm.lifetime.start.p0(i64 8, ptr %14) #6
  call void @llvm.lifetime.start.p0(i64 16, ptr %15) #6
  call void @llvm.lifetime.start.p0(i64 46, ptr %16) #6
  %18 = load i32, ptr %13, align 4
  switch i32 %18, label %63 [
    i32 16, label %19
    i32 32, label %32
  ]

19:                                               ; preds = %6
  %20 = load ptr, ptr %9, align 8
  %21 = load i32, ptr @hf_bgp_update_path_attribute_mp_reach_nlri_next_hop_ipv6, align 4
  %22 = load ptr, ptr %8, align 8
  %23 = load i32, ptr %10, align 4
  %24 = call ptr @proto_tree_add_item(ptr noundef %20, i32 noundef %21, ptr noundef %22, i32 noundef %23, i32 noundef 16, i32 noundef 0)
  %25 = load ptr, ptr %12, align 8
  %26 = load ptr, ptr %11, align 8
  %27 = getelementptr inbounds nuw %struct._packet_info, ptr %26, i32 0, i32 51
  %28 = load ptr, ptr %27, align 8
  %29 = load ptr, ptr %8, align 8
  %30 = load i32, ptr %10, align 4
  %31 = call ptr @tvb_address_to_str(ptr noundef %28, ptr noundef %29, i32 noundef 3, i32 noundef %30)
  call void @wmem_strbuf_append(ptr noundef %25, ptr noundef %31)
  br label %64

32:                                               ; preds = %6
  %33 = load ptr, ptr %9, align 8
  %34 = load i32, ptr @hf_bgp_update_path_attribute_mp_reach_nlri_next_hop_ipv6, align 4
  %35 = load ptr, ptr %8, align 8
  %36 = load i32, ptr %10, align 4
  %37 = call ptr @proto_tree_add_item(ptr noundef %33, i32 noundef %34, ptr noundef %35, i32 noundef %36, i32 noundef 16, i32 noundef 0)
  %38 = load ptr, ptr %12, align 8
  %39 = load ptr, ptr %11, align 8
  %40 = getelementptr inbounds nuw %struct._packet_info, ptr %39, i32 0, i32 51
  %41 = load ptr, ptr %40, align 8
  %42 = load ptr, ptr %8, align 8
  %43 = load i32, ptr %10, align 4
  %44 = call ptr @tvb_address_to_str(ptr noundef %41, ptr noundef %42, i32 noundef 3, i32 noundef %43)
  call void (ptr, ptr, ...) @wmem_strbuf_append_printf(ptr noundef %38, ptr noundef @.str.1808, ptr noundef %44)
  %45 = load i32, ptr %10, align 4
  %46 = add i32 %45, 16
  store i32 %46, ptr %10, align 4
  %47 = load ptr, ptr %9, align 8
  %48 = load i32, ptr @hf_bgp_update_path_attribute_mp_reach_nlri_next_hop_ipv6_link_local, align 4
  %49 = load ptr, ptr %8, align 8
  %50 = load i32, ptr %10, align 4
  %51 = call ptr @proto_tree_add_item(ptr noundef %47, i32 noundef %48, ptr noundef %49, i32 noundef %50, i32 noundef 16, i32 noundef 0)
  store ptr %51, ptr %14, align 8
  %52 = load ptr, ptr %8, align 8
  %53 = load i32, ptr %10, align 4
  call void @tvb_get_ipv6(ptr noundef %52, i32 noundef %53, ptr noundef %15)
  %54 = call zeroext i1 @in6_addr_is_linklocal(ptr noundef %15)
  br i1 %54, label %59, label %55

55:                                               ; preds = %32
  %56 = load ptr, ptr %11, align 8
  %57 = load ptr, ptr %14, align 8
  %58 = call ptr (ptr, ptr, ptr, ptr, ...) @expert_add_info_format(ptr noundef %56, ptr noundef %57, ptr noundef @ei_bgp_next_hop_ipv6_scope, ptr noundef @.str.1809)
  br label %59

59:                                               ; preds = %55, %32
  %60 = getelementptr inbounds [46 x i8], ptr %16, i64 0, i64 0
  call void @ip6_to_str_buf(ptr noundef %15, ptr noundef %60, i64 noundef 46)
  %61 = load ptr, ptr %12, align 8
  %62 = getelementptr inbounds [46 x i8], ptr %16, i64 0, i64 0
  call void (ptr, ptr, ...) @wmem_strbuf_append_printf(ptr noundef %61, ptr noundef @.str.1810, ptr noundef %62)
  br label %64

63:                                               ; preds = %6
  store i32 0, ptr %7, align 4
  store i32 1, ptr %17, align 4
  br label %66

64:                                               ; preds = %59, %19
  %65 = load i32, ptr %13, align 4
  store i32 %65, ptr %7, align 4
  store i32 1, ptr %17, align 4
  br label %66

66:                                               ; preds = %64, %63
  call void @llvm.lifetime.end.p0(i64 46, ptr %16) #6
  call void @llvm.lifetime.end.p0(i64 16, ptr %15) #6
  call void @llvm.lifetime.end.p0(i64 8, ptr %14) #6
  %67 = load i32, ptr %7, align 4
  ret i32 %67
}