; Function Attrs: null_pointer_is_valid sspstrong uwtable
define internal fastcc range(i32 0, 256) i32 @decode_mp_next_hop_ipv6(ptr noundef %0, ptr noundef %1, ptr noundef %2, ptr noundef %3, i32 noundef range(i32 0, 256) %4) unnamed_addr #0 {
  %6 = alloca %struct.e_in6_addr, align 1
  %7 = alloca [46 x i8], align 16
  call void @llvm.lifetime.start.p0(i64 16, ptr nonnull %6) #5
  call void @llvm.lifetime.start.p0(i64 46, ptr nonnull %7) #5
  %trunc = trunc nuw i32 %4 to i8
  switch i8 %trunc, label %28 [
    i8 16, label %8
    i8 32, label %14
  ]

8:                                                ; preds = %5
  %9 = load i32, ptr @hf_bgp_update_path_attribute_mp_reach_nlri_next_hop_ipv6, align 4
  %10 = tail call ptr @proto_tree_add_item(ptr noundef %1, i32 noundef %9, ptr noundef %0, i32 noundef 1, i32 noundef 16, i32 noundef 0)
  %11 = getelementptr inbounds nuw i8, ptr %2, i64 408
  %12 = load ptr, ptr %11, align 8
  %13 = tail call ptr @tvb_address_to_str(ptr noundef %12, ptr noundef %0, i32 noundef 3, i32 noundef 1)
  tail call void @wmem_strbuf_append(ptr noundef %3, ptr noundef %13)
  br label %28

14:                                               ; preds = %5
  %15 = load i32, ptr @hf_bgp_update_path_attribute_mp_reach_nlri_next_hop_ipv6, align 4
  %16 = tail call ptr @proto_tree_add_item(ptr noundef %1, i32 noundef %15, ptr noundef %0, i32 noundef 1, i32 noundef 16, i32 noundef 0)
  %17 = getelementptr inbounds nuw i8, ptr %2, i64 408
  %18 = load ptr, ptr %17, align 8
  %19 = tail call ptr @tvb_address_to_str(ptr noundef %18, ptr noundef %0, i32 noundef 3, i32 noundef 1)
  tail call void (ptr, ptr, ...) @wmem_strbuf_append_printf(ptr noundef %3, ptr noundef nonnull @.str.1808, ptr noundef %19)
  %20 = load i32, ptr @hf_bgp_update_path_attribute_mp_reach_nlri_next_hop_ipv6_link_local, align 4
  %21 = tail call ptr @proto_tree_add_item(ptr noundef %1, i32 noundef %20, ptr noundef %0, i32 noundef 17, i32 noundef 16, i32 noundef 0)
  call void @tvb_get_ipv6(ptr noundef %0, i32 noundef 17, ptr noundef nonnull %6)
  %.val = load i8, ptr %6, align 1
  %22 = getelementptr inbounds nuw i8, ptr %6, i64 1
  %.val25 = load i8, ptr %22, align 1
  %23 = icmp eq i8 %.val, -2
  %24 = icmp slt i8 %.val25, -64
  %spec.select.i = select i1 %23, i1 %24, i1 false
  br i1 %spec.select.i, label %27, label %25

25:                                               ; preds = %14
  %26 = call ptr (ptr, ptr, ptr, ptr, ...) @expert_add_info_format(ptr noundef %2, ptr noundef %21, ptr noundef nonnull @ei_bgp_next_hop_ipv6_scope, ptr noundef nonnull @.str.1809)
  br label %27

27:                                               ; preds = %25, %14
  call void @ip6_to_str_buf(ptr noundef nonnull %6, ptr noundef nonnull %7, i64 noundef 46)
  call void (ptr, ptr, ...) @wmem_strbuf_append_printf(ptr noundef %3, ptr noundef nonnull @.str.1810, ptr noundef nonnull %7)
  br label %28

28:                                               ; preds = %8, %27, %5
  %.0 = phi i32 [ 0, %5 ], [ %4, %27 ], [ %4, %8 ]
  call void @llvm.lifetime.end.p0(i64 46, ptr nonnull %7) #5
  call void @llvm.lifetime.end.p0(i64 16, ptr nonnull %6) #5
  ret i32 %.0
}